target datalayout = "e-m:e-p270:32:32-p271:32:32-p272:64:64-i64:64-i128:128-f80:128-n8:16:32:64-S128"
target triple = "x86_64-pc-linux-gnu"

%class.b3Vector3 = type { %union.anon }
%union.anon = type { [4 x float] }
%struct.b3DynamicBvh = type { ptr, ptr, i32, i32, i32, [4 x i8], %class.b3AlignedObjectArray, %class.b3AlignedObjectArray.0 }
%class.b3AlignedObjectArray = type <{ [4 x i8], i32, i32, [4 x i8], ptr, i8, [7 x i8] }>
%class.b3AlignedObjectArray.0 = type <{ [4 x i8], i32, i32, [4 x i8], ptr, i8, [7 x i8] }>
%struct.b3DbvtNode = type { %struct.b3DbvtAabbMm, ptr, %union.anon.4, [8 x i8] }
%struct.b3DbvtAabbMm = type { %class.b3Vector3, %class.b3Vector3 }
%union.anon.4 = type { [2 x ptr] }

; Function Attrs: inlinehint mustprogress uwtable
define internal void @_ZL12b3DeleteNodeP12b3DynamicBvhP10b3DbvtNode(ptr noundef %0, ptr noundef %1) #4 {
  %3 = alloca ptr, align 8
  %4 = alloca ptr, align 8
  store ptr %0, ptr %3, align 8, !tbaa !4
  store ptr %1, ptr %4, align 8, !tbaa !28
  %5 = load ptr, ptr %3, align 8, !tbaa !4
  %6 = getelementptr inbounds nuw %struct.b3DynamicBvh, ptr %5, i32 0, i32 1
  %7 = load ptr, ptr %6, align 8, !tbaa !20
  call void @_Z21b3AlignedFreeInternalPv(ptr noundef %7)
  %8 = load ptr, ptr %4, align 8, !tbaa !28
  %9 = load ptr, ptr %3, align 8, !tbaa !4
  %10 = getelementptr inbounds nuw %struct.b3DynamicBvh, ptr %9, i32 0, i32 1
  store ptr %8, ptr %10, align 8, !tbaa !20
  ret void
}

; Function Attrs: inlinehint mustprogress nounwind uwtable
define linkonce_odr dso_local noundef zeroext i1 @_ZNK10b3DbvtNode6isleafEv(ptr noundef nonnull align 16 dereferenceable(56) %0) #6 comdat align 2 {
  %2 = alloca ptr, align 8
  store ptr %0, ptr %2, align 8, !tbaa !28
  %3 = load ptr, ptr %2, align 8
  %4 = getelementptr inbounds nuw %struct.b3DbvtNode, ptr %3, i32 0, i32 2
  %5 = getelementptr inbounds [2 x ptr], ptr %4, i64 0, i64 1
  %6 = load ptr, ptr %5, align 8, !tbaa !29
  %7 = icmp eq ptr %6, null
  ret i1 %7
}

; Function Attrs: mustprogress uwtable
define internal void @_ZL19b3RecurseDeleteNodeP12b3DynamicBvhP10b3DbvtNode(ptr noundef %0, ptr noundef %1) #0 {
  %3 = alloca ptr, align 8
  %4 = alloca ptr, align 8
  store ptr %0, ptr %3, align 8, !tbaa !4
  store ptr %1, ptr %4, align 8, !tbaa !28
  %5 = load ptr, ptr %4, align 8, !tbaa !28
  %6 = call noundef zeroext i1 @_ZNK10b3DbvtNode6isleafEv(ptr noundef nonnull align 16 dereferenceable(56) %5)
  br i1 %6, label %18, label %7

7:                                                ; preds = %2
  %8 = load ptr, ptr %3, align 8, !tbaa !4
  %9 = load ptr, ptr %4, align 8, !tbaa !28
  %10 = getelementptr inbounds nuw %struct.b3DbvtNode, ptr %9, i32 0, i32 2
  %11 = getelementptr inbounds [2 x ptr], ptr %10, i64 0, i64 0
  %12 = load ptr, ptr %11, align 8, !tbaa !29
  call void @_ZL19b3RecurseDeleteNodeP12b3DynamicBvhP10b3DbvtNode(ptr noundef %8, ptr noundef %12)
  %13 = load ptr, ptr %3, align 8, !tbaa !4
  %14 = load ptr, ptr %4, align 8, !tbaa !28
  %15 = getelementptr inbounds nuw %struct.b3DbvtNode, ptr %14, i32 0, i32 2
  %16 = getelementptr inbounds [2 x ptr], ptr %15, i64 0, i64 1
  %17 = load ptr, ptr %16, align 8, !tbaa !29
  call void @_ZL19b3RecurseDeleteNodeP12b3DynamicBvhP10b3DbvtNode(ptr noundef %13, ptr noundef %17)
  br label %18

18:                                               ; preds = %7, %2
  %19 = load ptr, ptr %4, align 8, !tbaa !28
  %20 = load ptr, ptr %3, align 8, !tbaa !4
  %21 = getelementptr inbounds nuw %struct.b3DynamicBvh, ptr %20, i32 0, i32 0
  %22 = load ptr, ptr %21, align 8, !tbaa !9
  %23 = icmp eq ptr %19, %22
  br i1 %23, label %24, label %27

24:                                               ; preds = %18
  %25 = load ptr, ptr %3, align 8, !tbaa !4
  %26 = getelementptr inbounds nuw %struct.b3DynamicBvh, ptr %25, i32 0, i32 0
  store ptr null, ptr %26, align 8, !tbaa !9
  br label %27

27:                                               ; preds = %24, %18
  %28 = load ptr, ptr %3, align 8, !tbaa !4
  %29 = load ptr, ptr %4, align 8, !tbaa !28
  call void @_ZL12b3DeleteNodeP12b3DynamicBvhP10b3DbvtNode(ptr noundef %28, ptr noundef %29)
  ret void
}