; Function Attrs: mustprogress uwtable
define internal fastcc void @_ZL19b3RecurseDeleteNodeP12b3DynamicBvhP10b3DbvtNode(ptr noundef nonnull %0, ptr noundef %1) unnamed_addr #2 {
  %3 = getelementptr inbounds nuw i8, ptr %1, i64 48
  %4 = load ptr, ptr %3, align 8, !tbaa !32
  %5 = icmp eq ptr %4, null
  br i1 %5, label %10, label %6

6:                                                ; preds = %2
  %7 = getelementptr inbounds nuw i8, ptr %1, i64 40
  %8 = load ptr, ptr %7, align 8, !tbaa !32
  tail call fastcc void @_ZL19b3RecurseDeleteNodeP12b3DynamicBvhP10b3DbvtNode(ptr noundef %0, ptr noundef %8)
  %9 = load ptr, ptr %3, align 8, !tbaa !32
  tail call fastcc void @_ZL19b3RecurseDeleteNodeP12b3DynamicBvhP10b3DbvtNode(ptr noundef %0, ptr noundef %9)
  br label %10

10:                                               ; preds = %6, %2
  %11 = load ptr, ptr %0, align 8, !tbaa !28
  %12 = icmp eq ptr %1, %11
  br i1 %12, label %13, label %14

13:                                               ; preds = %10
  store ptr null, ptr %0, align 8, !tbaa !28
  br label %14

14:                                               ; preds = %13, %10
  %15 = getelementptr inbounds nuw i8, ptr %0, i64 8
  %16 = load ptr, ptr %15, align 8, !tbaa !29
  tail call void @_Z21b3AlignedFreeInternalPv(ptr noundef %16)
  store ptr %1, ptr %15, align 8, !tbaa !29
  ret void
}